target datalayout = "e-m:e-p270:32:32-p271:32:32-p272:64:64-i64:64-i128:128-f80:128-n8:16:32:64-S128"
target triple = "x86_64-pc-linux-gnu"

%struct.ZSTD_customMem = type { ptr, ptr, ptr }
%struct.ZSTD_compressionParameters = type { i32, i32, i32, i32, i32, i32, i32 }
%struct.ZSTD_cwksp = type { ptr, ptr, ptr, ptr, ptr, ptr, ptr, i8, i32, i32, i32 }
%struct.ZSTD_window_t = type { ptr, ptr, ptr, i32, i32, i32 }
%struct.ZSTD_MatchState_t = type { %struct.ZSTD_window_t, i32, i32, i32, i32, ptr, [8 x i32], i64, i32, ptr, ptr, ptr, i32, i32, %struct.optState_t, ptr, %struct.ZSTD_compressionParameters, ptr, i32, i32 }
%struct.optState_t = type { ptr, ptr, ptr, ptr, ptr, ptr, i32, i32, i32, i32, i32, i32, i32, i32, i32, ptr, i32 }
%struct.ZSTD_compressedBlockState_t = type { %struct.ZSTD_entropyCTables_t, [3 x i32] }
%struct.ZSTD_entropyCTables_t = type { %struct.ZSTD_hufCTables_t, %struct.ZSTD_fseCTables_t }
%struct.ZSTD_hufCTables_t = type { [257 x i64], i32 }
%struct.ZSTD_fseCTables_t = type { [193 x i32], [363 x i32], [329 x i32], i32, i32, i32 }
%struct.ZSTD_CDict_s = type { ptr, i64, i32, ptr, %struct.ZSTD_cwksp, %struct.ZSTD_MatchState_t, %struct.ZSTD_compressedBlockState_t, %struct.ZSTD_customMem, i32, i32, i32 }

; Function Attrs: inlinehint nounwind uwtable
define internal i64 @ZSTD_cwksp_sizeof(ptr noundef %0) #2 {
  %2 = alloca ptr, align 8
  store ptr %0, ptr %2, align 8, !tbaa !15
  %3 = load ptr, ptr %2, align 8, !tbaa !15
  %4 = getelementptr inbounds nuw %struct.ZSTD_cwksp, ptr %3, i32 0, i32 1
  %5 = load ptr, ptr %4, align 8, !tbaa !55
  %6 = load ptr, ptr %2, align 8, !tbaa !15
  %7 = getelementptr inbounds nuw %struct.ZSTD_cwksp, ptr %6, i32 0, i32 0
  %8 = load ptr, ptr %7, align 8, !tbaa !54
  %9 = ptrtoint ptr %5 to i64
  %10 = ptrtoint ptr %8 to i64
  %11 = sub i64 %9, %10
  ret i64 %11
}

; Function Attrs: nounwind uwtable
define i64 @ZSTD_sizeof_CDict(ptr noundef %0) #0 {
  %2 = alloca i64, align 8
  %3 = alloca ptr, align 8
  store ptr %0, ptr %3, align 8, !tbaa !148
  %4 = load ptr, ptr %3, align 8, !tbaa !148
  %5 = icmp eq ptr %4, null
  br i1 %5, label %6, label %7

6:                                                ; preds = %1
  store i64 0, ptr %2, align 8
  br label %21

7:                                                ; preds = %1
  br label %8

8:                                                ; preds = %7
  br label %9

9:                                                ; preds = %8
  %10 = load ptr, ptr %3, align 8, !tbaa !148
  %11 = getelementptr inbounds nuw %struct.ZSTD_CDict_s, ptr %10, i32 0, i32 4
  %12 = getelementptr inbounds nuw %struct.ZSTD_cwksp, ptr %11, i32 0, i32 0
  %13 = load ptr, ptr %12, align 8, !tbaa !278
  %14 = load ptr, ptr %3, align 8, !tbaa !148
  %15 = icmp eq ptr %13, %14
  %16 = select i1 %15, i64 0, i64 6080
  %17 = load ptr, ptr %3, align 8, !tbaa !148
  %18 = getelementptr inbounds nuw %struct.ZSTD_CDict_s, ptr %17, i32 0, i32 4
  %19 = call i64 @ZSTD_cwksp_sizeof(ptr noundef %18)
  %20 = add i64 %16, %19
  store i64 %20, ptr %2, align 8
  br label %21

21:                                               ; preds = %9, %6
  %22 = load i64, ptr %2, align 8
  ret i64 %22
}